target datalayout = "e-m:e-p270:32:32-p271:32:32-p272:64:64-i64:64-i128:128-f80:128-n8:16:32:64-S128"
target triple = "x86_64-pc-linux-gnu"

%class.ErrorHandler = type <{ i32, i32, i8, i8, i8, i8, i8, i8, [2 x i8] }>

@_ZTI8RAR_EXIT = linkonce_odr constant { ptr, ptr } { ptr getelementptr inbounds (ptr, ptr @_ZTVN10__cxxabiv116__enum_type_infoE, i64 2), ptr @_ZTS8RAR_EXIT }, comdat, align 8

; Function Attrs: mustprogress uwtable
define void @_ZN12ErrorHandler5ThrowE8RAR_EXIT(ptr noundef nonnull align 4 dereferenceable(14) %0, i32 noundef %1) #0 align 2 {
  %3 = alloca ptr, align 8
  %4 = alloca i32, align 4
  store ptr %0, ptr %3, align 8
  store i32 %1, ptr %4, align 4
  %5 = load ptr, ptr %3, align 8
  %6 = load i32, ptr %4, align 4
  %7 = icmp eq i32 %6, 255
  br i1 %7, label %8, label %13

8:                                                ; preds = %2
  %9 = getelementptr inbounds %class.ErrorHandler, ptr %5, i32 0, i32 2
  %10 = load i8, ptr %9, align 4
  %11 = trunc i8 %10 to i1
  br i1 %11, label %13, label %12

12:                                               ; preds = %8
  ret void

13:                                               ; preds = %8, %2
  %14 = load i32, ptr %4, align 4
  call void @_ZN12ErrorHandler12SetErrorCodeE8RAR_EXIT(ptr noundef nonnull align 4 dereferenceable(14) %5, i32 noundef %14)
  %15 = call ptr @__cxa_allocate_exception(i64 4) #8
  %16 = load i32, ptr %4, align 4
  store i32 %16, ptr %15, align 16
  call void @__cxa_throw(ptr %15, ptr @_ZTI8RAR_EXIT, ptr null) #9
  unreachable
}