; Function Attrs: mustprogress uwtable
define void @_ZN12ErrorHandler5ThrowE8RAR_EXIT(ptr nocapture noundef nonnull align 4 dereferenceable(14) %0, i32 noundef %1) local_unnamed_addr #2 align 2 {
  %3 = icmp eq i32 %1, 255
  br i1 %3, label %4, label %.split

.split:                                           ; preds = %2
  tail call void @_ZN12ErrorHandler12SetErrorCodeE8RAR_EXIT(ptr noundef nonnull align 4 dereferenceable(14) %0, i32 noundef %1)
  br label %14

4:                                                ; preds = %2
  %5 = getelementptr inbounds i8, ptr %0, i64 8
  %6 = load i8, ptr %5, align 4
  %7 = trunc i8 %6 to i1
  br i1 %7, label %.split3, label %13

.split3:                                          ; preds = %4
  %8 = load i32, ptr %0, align 4
  %9 = icmp eq i32 %8, 0
  br i1 %9, label %.sink.split.i, label %_ZN12ErrorHandler12SetErrorCodeE8RAR_EXIT.exit

.sink.split.i:                                    ; preds = %.split3
  store i32 255, ptr %0, align 4
  br label %_ZN12ErrorHandler12SetErrorCodeE8RAR_EXIT.exit

_ZN12ErrorHandler12SetErrorCodeE8RAR_EXIT.exit:   ; preds = %.split3, %.sink.split.i
  %10 = getelementptr inbounds i8, ptr %0, i64 4
  %11 = load i32, ptr %10, align 4
  %12 = add i32 %11, 1
  store i32 %12, ptr %10, align 4
  br label %14

13:                                               ; preds = %4
  ret void

14:                                               ; preds = %_ZN12ErrorHandler12SetErrorCodeE8RAR_EXIT.exit, %.split
  %15 = tail call ptr @__cxa_allocate_exception(i64 4) #15
  store i32 %1, ptr %15, align 16
  tail call void @__cxa_throw(ptr nonnull %15, ptr nonnull @_ZTI8RAR_EXIT, ptr null) #16
  unreachable
}